ccopy_reg
_reconstructor
p0
(cgoogle.oauth2.credentials
Credentials
p1
c__builtin__
object
p2
Ntp3
Rp4
(dp5
S'_token_uri'
p6
Vhttps://oauth2.googleapis.com/token
p7
sS'_client_secret'
p8
V7nFFsRFX188f7JFfvokSEJTM
p9
sS'_id_token'
p10
NsS'token'
p11
Vya29.GlttB-sPmE9TYdwmZ07thYyKsVyLzHxWi8zqFCA98Cby8NVguodqtj4hh_XWN9Yp2N3JrCgnhzuOhJ0oQTttP2ibWseLenFZCvF7c0ffUzbxYQe0Bwwarja9aCGv
p12
sS'_refresh_token'
p13
V1/NMQ0s79YJRsdN2nQ-Wzzc5xdVX0RFOn6XkreQquQvvU
p14
sS'_scopes'
p15
(lp16
S'https://www.googleapis.com/auth/spreadsheets.readonly'
p17
asS'_client_id'
p18
V718878164793-eskmfar8rvdja91umm4aadopuas6dhcf.apps.googleusercontent.com
p19
sS'expiry'
p20
cdatetime
datetime
p21
(S'\x07\xe3\x08\x17\n"\x01\x0ep\xdc'
p22
tp23
Rp24
sb.